target datalayout = "e-m:e-p270:32:32-p271:32:32-p272:64:64-i64:64-i128:128-f80:128-n8:16:32:64-S128"
target triple = "x86_64-unknown-linux-gnu"

%struct.ecc_curve_spec = type { ptr, ptr, ptr, ptr, ptr, ptr, ptr, i32, i32, i8 }

; Function Attrs: nounwind uwtable
define internal void @wc_ecc_curve_cache_free_spec_item(ptr noundef %curve, ptr noundef %item, i8 noundef zeroext %mask) #0 {
entry:
  %curve.addr = alloca ptr, align 8
  %item.addr = alloca ptr, align 8
  %mask.addr = alloca i8, align 1
  store ptr %curve, ptr %curve.addr, align 8
  store ptr %item, ptr %item.addr, align 8
  store i8 %mask, ptr %mask.addr, align 1
  %0 = load ptr, ptr %item.addr, align 8
  %tobool = icmp ne ptr %0, null
  br i1 %tobool, label %if.then, label %if.end

if.then:                                          ; preds = %entry
  %1 = load ptr, ptr %item.addr, align 8
  call void @sp_clear(ptr noundef %1)
  br label %if.end

if.end:                                           ; preds = %if.then, %entry
  %2 = load i8, ptr %mask.addr, align 1
  %conv = zext i8 %2 to i32
  %not = xor i32 %conv, -1
  %3 = load ptr, ptr %curve.addr, align 8
  %load_mask = getelementptr inbounds %struct.ecc_curve_spec, ptr %3, i32 0, i32 9
  %4 = load i8, ptr %load_mask, align 8
  %conv1 = zext i8 %4 to i32
  %and = and i32 %conv1, %not
  %conv2 = trunc i32 %and to i8
  store i8 %conv2, ptr %load_mask, align 8
  ret void
}

; Function Attrs: nounwind uwtable
define internal void @wc_ecc_curve_cache_free_spec(ptr noundef %curve) #0 {
entry:
  %curve.addr = alloca ptr, align 8
  store ptr %curve, ptr %curve.addr, align 8
  %0 = load ptr, ptr %curve.addr, align 8
  %cmp = icmp eq ptr %0, null
  br i1 %cmp, label %if.then, label %if.end

if.then:                                          ; preds = %entry
  br label %return

if.end:                                           ; preds = %entry
  %1 = load ptr, ptr %curve.addr, align 8
  %load_mask = getelementptr inbounds %struct.ecc_curve_spec, ptr %1, i32 0, i32 9
  %2 = load i8, ptr %load_mask, align 8
  %conv = zext i8 %2 to i32
  %and = and i32 %conv, 1
  %tobool = icmp ne i32 %and, 0
  br i1 %tobool, label %if.then1, label %if.end2

if.then1:                                         ; preds = %if.end
  %3 = load ptr, ptr %curve.addr, align 8
  %4 = load ptr, ptr %curve.addr, align 8
  %prime = getelementptr inbounds %struct.ecc_curve_spec, ptr %4, i32 0, i32 1
  %5 = load ptr, ptr %prime, align 8
  call void @wc_ecc_curve_cache_free_spec_item(ptr noundef %3, ptr noundef %5, i8 noundef zeroext 1)
  br label %if.end2

if.end2:                                          ; preds = %if.then1, %if.end
  %6 = load ptr, ptr %curve.addr, align 8
  %load_mask3 = getelementptr inbounds %struct.ecc_curve_spec, ptr %6, i32 0, i32 9
  %7 = load i8, ptr %load_mask3, align 8
  %conv4 = zext i8 %7 to i32
  %and5 = and i32 %conv4, 2
  %tobool6 = icmp ne i32 %and5, 0
  br i1 %tobool6, label %if.then7, label %if.end8

if.then7:                                         ; preds = %if.end2
  %8 = load ptr, ptr %curve.addr, align 8
  %9 = load ptr, ptr %curve.addr, align 8
  %Af = getelementptr inbounds %struct.ecc_curve_spec, ptr %9, i32 0, i32 2
  %10 = load ptr, ptr %Af, align 8
  call void @wc_ecc_curve_cache_free_spec_item(ptr noundef %8, ptr noundef %10, i8 noundef zeroext 2)
  br label %if.end8

if.end8:                                          ; preds = %if.then7, %if.end2
  %11 = load ptr, ptr %curve.addr, align 8
  %load_mask9 = getelementptr inbounds %struct.ecc_curve_spec, ptr %11, i32 0, i32 9
  %12 = load i8, ptr %load_mask9, align 8
  %conv10 = zext i8 %12 to i32
  %and11 = and i32 %conv10, 8
  %tobool12 = icmp ne i32 %and11, 0
  br i1 %tobool12, label %if.then13, label %if.end14

if.then13:                                        ; preds = %if.end8
  %13 = load ptr, ptr %curve.addr, align 8
  %14 = load ptr, ptr %curve.addr, align 8
  %order = getelementptr inbounds %struct.ecc_curve_spec, ptr %14, i32 0, i32 3
  %15 = load ptr, ptr %order, align 8
  call void @wc_ecc_curve_cache_free_spec_item(ptr noundef %13, ptr noundef %15, i8 noundef zeroext 8)
  br label %if.end14

if.end14:                                         ; preds = %if.then13, %if.end8
  %16 = load ptr, ptr %curve.addr, align 8
  %load_mask15 = getelementptr inbounds %struct.ecc_curve_spec, ptr %16, i32 0, i32 9
  %17 = load i8, ptr %load_mask15, align 8
  %conv16 = zext i8 %17 to i32
  %and17 = and i32 %conv16, 16
  %tobool18 = icmp ne i32 %and17, 0
  br i1 %tobool18, label %if.then19, label %if.end20

if.then19:                                        ; preds = %if.end14
  %18 = load ptr, ptr %curve.addr, align 8
  %19 = load ptr, ptr %curve.addr, align 8
  %Gx = getelementptr inbounds %struct.ecc_curve_spec, ptr %19, i32 0, i32 4
  %20 = load ptr, ptr %Gx, align 8
  call void @wc_ecc_curve_cache_free_spec_item(ptr noundef %18, ptr noundef %20, i8 noundef zeroext 16)
  br label %if.end20

if.end20:                                         ; preds = %if.then19, %if.end14
  %21 = load ptr, ptr %curve.addr, align 8
  %load_mask21 = getelementptr inbounds %struct.ecc_curve_spec, ptr %21, i32 0, i32 9
  %22 = load i8, ptr %load_mask21, align 8
  %conv22 = zext i8 %22 to i32
  %and23 = and i32 %conv22, 32
  %tobool24 = icmp ne i32 %and23, 0
  br i1 %tobool24, label %if.then25, label %if.end26

if.then25:                                        ; preds = %if.end20
  %23 = load ptr, ptr %curve.addr, align 8
  %24 = load ptr, ptr %curve.addr, align 8
  %Gy = getelementptr inbounds %struct.ecc_curve_spec, ptr %24, i32 0, i32 5
  %25 = load ptr, ptr %Gy, align 8
  call void @wc_ecc_curve_cache_free_spec_item(ptr noundef %23, ptr noundef %25, i8 noundef zeroext 32)
  br label %if.end26

if.end26:                                         ; preds = %if.then25, %if.end20
  %26 = load ptr, ptr %curve.addr, align 8
  %load_mask27 = getelementptr inbounds %struct.ecc_curve_spec, ptr %26, i32 0, i32 9
  store i8 0, ptr %load_mask27, align 8
  br label %return

return:                                           ; preds = %if.end26, %if.then
  ret void
}

; Function Attrs: nounwind uwtable
define internal void @wc_ecc_curve_free(ptr noundef %curve) #0 {
entry:
  %curve.addr = alloca ptr, align 8
  store ptr %curve, ptr %curve.addr, align 8
  %0 = load ptr, ptr %curve.addr, align 8
  %tobool = icmp ne ptr %0, null
  br i1 %tobool, label %if.then, label %if.end

if.then:                                          ; preds = %entry
  %1 = load ptr, ptr %curve.addr, align 8
  call void @wc_ecc_curve_cache_free_spec(ptr noundef %1)
  br label %if.end

if.end:                                           ; preds = %if.then, %entry
  ret void
}