; Function Attrs: nounwind uwtable
define internal fastcc void @wc_ecc_curve_free(ptr noundef %curve) unnamed_addr #2 {
entry:
  %tobool.not = icmp eq ptr %curve, null
  br i1 %tobool.not, label %if.end, label %if.then

if.then:                                          ; preds = %entry
  %load_mask.i = getelementptr inbounds nuw i8, ptr %curve, i64 64
  %0 = load i8, ptr %load_mask.i, align 8
  %1 = and i8 %0, 1
  %tobool.not.i = icmp eq i8 %1, 0
  br i1 %tobool.not.i, label %if.end2.i, label %if.then1.i

if.then1.i:                                       ; preds = %if.then
  %prime.i = getelementptr inbounds nuw i8, ptr %curve, i64 8
  %2 = load ptr, ptr %prime.i, align 8
  %tobool.not.i.i = icmp eq ptr %2, null
  br i1 %tobool.not.i.i, label %wc_ecc_curve_cache_free_spec_item.exit.i, label %if.then.i.i

if.then.i.i:                                      ; preds = %if.then1.i
  tail call void @sp_clear(ptr noundef nonnull %2) #19
  %.pre.i = load i8, ptr %load_mask.i, align 8
  br label %wc_ecc_curve_cache_free_spec_item.exit.i

wc_ecc_curve_cache_free_spec_item.exit.i:         ; preds = %if.then.i.i, %if.then1.i
  %3 = phi i8 [ %0, %if.then1.i ], [ %.pre.i, %if.then.i.i ]
  %and.i.i = and i8 %3, -2
  store i8 %and.i.i, ptr %load_mask.i, align 8
  br label %if.end2.i

if.end2.i:                                        ; preds = %wc_ecc_curve_cache_free_spec_item.exit.i, %if.then
  %4 = phi i8 [ %and.i.i, %wc_ecc_curve_cache_free_spec_item.exit.i ], [ %0, %if.then ]
  %5 = and i8 %4, 2
  %tobool6.not.i = icmp eq i8 %5, 0
  br i1 %tobool6.not.i, label %if.end8.i, label %if.then7.i

if.then7.i:                                       ; preds = %if.end2.i
  %Af.i = getelementptr inbounds nuw i8, ptr %curve, i64 16
  %6 = load ptr, ptr %Af.i, align 8
  %tobool.not.i17.i = icmp eq ptr %6, null
  br i1 %tobool.not.i17.i, label %wc_ecc_curve_cache_free_spec_item.exit21.i, label %if.then.i18.i

if.then.i18.i:                                    ; preds = %if.then7.i
  tail call void @sp_clear(ptr noundef nonnull %6) #19
  %.pre37.i = load i8, ptr %load_mask.i, align 8
  br label %wc_ecc_curve_cache_free_spec_item.exit21.i

wc_ecc_curve_cache_free_spec_item.exit21.i:       ; preds = %if.then.i18.i, %if.then7.i
  %7 = phi i8 [ %4, %if.then7.i ], [ %.pre37.i, %if.then.i18.i ]
  %and.i20.i = and i8 %7, -3
  store i8 %and.i20.i, ptr %load_mask.i, align 8
  br label %if.end8.i

if.end8.i:                                        ; preds = %wc_ecc_curve_cache_free_spec_item.exit21.i, %if.end2.i
  %8 = phi i8 [ %and.i20.i, %wc_ecc_curve_cache_free_spec_item.exit21.i ], [ %4, %if.end2.i ]
  %9 = and i8 %8, 8
  %tobool12.not.i = icmp eq i8 %9, 0
  br i1 %tobool12.not.i, label %if.end14.i, label %if.then13.i

if.then13.i:                                      ; preds = %if.end8.i
  %order.i = getelementptr inbounds nuw i8, ptr %curve, i64 24
  %10 = load ptr, ptr %order.i, align 8
  %tobool.not.i22.i = icmp eq ptr %10, null
  br i1 %tobool.not.i22.i, label %wc_ecc_curve_cache_free_spec_item.exit26.i, label %if.then.i23.i

if.then.i23.i:                                    ; preds = %if.then13.i
  tail call void @sp_clear(ptr noundef nonnull %10) #19
  %.pre38.i = load i8, ptr %load_mask.i, align 8
  br label %wc_ecc_curve_cache_free_spec_item.exit26.i

wc_ecc_curve_cache_free_spec_item.exit26.i:       ; preds = %if.then.i23.i, %if.then13.i
  %11 = phi i8 [ %8, %if.then13.i ], [ %.pre38.i, %if.then.i23.i ]
  %and.i25.i = and i8 %11, -9
  store i8 %and.i25.i, ptr %load_mask.i, align 8
  br label %if.end14.i

if.end14.i:                                       ; preds = %wc_ecc_curve_cache_free_spec_item.exit26.i, %if.end8.i
  %12 = phi i8 [ %and.i25.i, %wc_ecc_curve_cache_free_spec_item.exit26.i ], [ %8, %if.end8.i ]
  %13 = and i8 %12, 16
  %tobool18.not.i = icmp eq i8 %13, 0
  br i1 %tobool18.not.i, label %if.end20.i, label %if.then19.i

if.then19.i:                                      ; preds = %if.end14.i
  %Gx.i = getelementptr inbounds nuw i8, ptr %curve, i64 32
  %14 = load ptr, ptr %Gx.i, align 8
  %tobool.not.i27.i = icmp eq ptr %14, null
  br i1 %tobool.not.i27.i, label %wc_ecc_curve_cache_free_spec_item.exit31.i, label %if.then.i28.i

if.then.i28.i:                                    ; preds = %if.then19.i
  tail call void @sp_clear(ptr noundef nonnull %14) #19
  %.pre39.i = load i8, ptr %load_mask.i, align 8
  br label %wc_ecc_curve_cache_free_spec_item.exit31.i

wc_ecc_curve_cache_free_spec_item.exit31.i:       ; preds = %if.then.i28.i, %if.then19.i
  %15 = phi i8 [ %12, %if.then19.i ], [ %.pre39.i, %if.then.i28.i ]
  %and.i30.i = and i8 %15, -17
  store i8 %and.i30.i, ptr %load_mask.i, align 8
  br label %if.end20.i

if.end20.i:                                       ; preds = %wc_ecc_curve_cache_free_spec_item.exit31.i, %if.end14.i
  %16 = phi i8 [ %and.i30.i, %wc_ecc_curve_cache_free_spec_item.exit31.i ], [ %12, %if.end14.i ]
  %17 = and i8 %16, 32
  %tobool24.not.i = icmp eq i8 %17, 0
  br i1 %tobool24.not.i, label %wc_ecc_curve_cache_free_spec.exit, label %if.then25.i

if.then25.i:                                      ; preds = %if.end20.i
  %Gy.i = getelementptr inbounds nuw i8, ptr %curve, i64 40
  %18 = load ptr, ptr %Gy.i, align 8
  %tobool.not.i32.i = icmp eq ptr %18, null
  br i1 %tobool.not.i32.i, label %wc_ecc_curve_cache_free_spec.exit, label %if.then.i33.i

if.then.i33.i:                                    ; preds = %if.then25.i
  tail call void @sp_clear(ptr noundef nonnull %18) #19
  br label %wc_ecc_curve_cache_free_spec.exit

wc_ecc_curve_cache_free_spec.exit:                ; preds = %if.end20.i, %if.then25.i, %if.then.i33.i
  store i8 0, ptr %load_mask.i, align 8
  br label %if.end

if.end:                                           ; preds = %wc_ecc_curve_cache_free_spec.exit, %entry
  ret void
}